target datalayout = "e-m:e-p270:32:32-p271:32:32-p272:64:64-i64:64-i128:128-f80:128-n8:16:32:64-S128"
target triple = "x86_64-pc-linux-gnu"

; Function Attrs: nounwind null_pointer_is_valid sspstrong uwtable
define zeroext i16 @hpke_aead_key_len(i16 noundef zeroext %0) #5 {
  %2 = alloca i16, align 2
  %3 = alloca i16, align 2
  store i16 %0, ptr %3, align 2
  %4 = load i16, ptr %3, align 2
  %5 = zext i16 %4 to i32
  switch i32 %5, label %9 [
    i32 1, label %6
    i32 2, label %7
    i32 3, label %8
  ]

6:                                                ; preds = %1
  store i16 16, ptr %2, align 2
  br label %10

7:                                                ; preds = %1
  store i16 32, ptr %2, align 2
  br label %10

8:                                                ; preds = %1
  store i16 32, ptr %2, align 2
  br label %10

9:                                                ; preds = %1
  store i16 0, ptr %2, align 2
  br label %10

10:                                               ; preds = %9, %8, %7, %6
  %11 = load i16, ptr %2, align 2
  ret i16 %11
}