; Function Attrs: mustprogress nofree norecurse nosync nounwind null_pointer_is_valid sspstrong willreturn memory(none) uwtable
define zeroext range(i16 0, 33) i16 @hpke_aead_key_len(i16 noundef zeroext %0) local_unnamed_addr #4 {
  %2 = icmp ult i16 %0, 4
  %switch.cast = zext i16 %0 to i64
  %switch.shiftamt = shl nuw nsw i64 %switch.cast, 4
  %switch.downshift = lshr i64 9007336694743040, %switch.shiftamt
  %switch.masked = trunc i64 %switch.downshift to i16
  %.0 = select i1 %2, i16 %switch.masked, i16 0
  ret i16 %.0
}